target datalayout = "e-m:e-p270:32:32-p271:32:32-p272:64:64-i64:64-i128:128-f80:128-n8:16:32:64-S128"
target triple = "x86_64-pc-linux-gnu"

; Function Attrs: nounwind uwtable
define hidden i32 @opj_mct_decode_custom(ptr noundef %0, i64 noundef %1, ptr noundef %2, i32 noundef %3, i32 noundef %4) #0 {
  %6 = alloca i32, align 4
  %7 = alloca ptr, align 8
  %8 = alloca i64, align 8
  %9 = alloca ptr, align 8
  %10 = alloca i32, align 4
  %11 = alloca i32, align 4
  %12 = alloca ptr, align 8
  %13 = alloca i64, align 8
  %14 = alloca i32, align 4
  %15 = alloca i32, align 4
  %16 = alloca ptr, align 8
  %17 = alloca ptr, align 8
  %18 = alloca ptr, align 8
  %19 = alloca i32, align 4
  store ptr %0, ptr %7, align 8, !tbaa !29
  store i64 %1, ptr %8, align 8, !tbaa !8
  store ptr %2, ptr %9, align 8, !tbaa !31
  store i32 %3, ptr %10, align 4, !tbaa !13
  store i32 %4, ptr %11, align 4, !tbaa !13
  call void @llvm.lifetime.start.p0(i64 8, ptr %12) #9
  call void @llvm.lifetime.start.p0(i64 8, ptr %13) #9
  call void @llvm.lifetime.start.p0(i64 4, ptr %14) #9
  call void @llvm.lifetime.start.p0(i64 4, ptr %15) #9
  call void @llvm.lifetime.start.p0(i64 8, ptr %16) #9
  store ptr null, ptr %16, align 8, !tbaa !21
  call void @llvm.lifetime.start.p0(i64 8, ptr %17) #9
  store ptr null, ptr %17, align 8, !tbaa !21
  call void @llvm.lifetime.start.p0(i64 8, ptr %18) #9
  %20 = load ptr, ptr %9, align 8, !tbaa !31
  store ptr %20, ptr %18, align 8, !tbaa !41
  %21 = load i32, ptr %10, align 4, !tbaa !13
  %22 = mul i32 2, %21
  %23 = zext i32 %22 to i64
  %24 = mul i64 %23, 4
  %25 = call ptr @opj_malloc(i64 noundef %24)
  store ptr %25, ptr %16, align 8, !tbaa !21
  %26 = load ptr, ptr %16, align 8, !tbaa !21
  %27 = icmp ne ptr %26, null
  br i1 %27, label %29, label %28

28:                                               ; preds = %5
  store i32 0, ptr %6, align 4
  store i32 1, ptr %19, align 4
  br label %111

29:                                               ; preds = %5
  %30 = load ptr, ptr %16, align 8, !tbaa !21
  %31 = load i32, ptr %10, align 4, !tbaa !13
  %32 = zext i32 %31 to i64
  %33 = getelementptr inbounds nuw float, ptr %30, i64 %32
  store ptr %33, ptr %17, align 8, !tbaa !21
  store i64 0, ptr %13, align 8, !tbaa !8
  br label %34

34:                                               ; preds = %106, %29
  %35 = load i64, ptr %13, align 8, !tbaa !8
  %36 = load i64, ptr %8, align 8, !tbaa !8
  %37 = icmp ult i64 %35, %36
  br i1 %37, label %38, label %109

38:                                               ; preds = %34
  %39 = load ptr, ptr %7, align 8, !tbaa !29
  store ptr %39, ptr %12, align 8, !tbaa !21
  store i32 0, ptr %14, align 4, !tbaa !13
  br label %40

40:                                               ; preds = %55, %38
  %41 = load i32, ptr %14, align 4, !tbaa !13
  %42 = load i32, ptr %10, align 4, !tbaa !13
  %43 = icmp ult i32 %41, %42
  br i1 %43, label %44, label %58

44:                                               ; preds = %40
  %45 = load ptr, ptr %18, align 8, !tbaa !41
  %46 = load i32, ptr %14, align 4, !tbaa !13
  %47 = zext i32 %46 to i64
  %48 = getelementptr inbounds nuw ptr, ptr %45, i64 %47
  %49 = load ptr, ptr %48, align 8, !tbaa !21
  %50 = load float, ptr %49, align 4, !tbaa !24
  %51 = load ptr, ptr %16, align 8, !tbaa !21
  %52 = load i32, ptr %14, align 4, !tbaa !13
  %53 = zext i32 %52 to i64
  %54 = getelementptr inbounds nuw float, ptr %51, i64 %53
  store float %50, ptr %54, align 4, !tbaa !24
  br label %55

55:                                               ; preds = %44
  %56 = load i32, ptr %14, align 4, !tbaa !13
  %57 = add i32 %56, 1
  store i32 %57, ptr %14, align 4, !tbaa !13
  br label %40, !llvm.loop !43

58:                                               ; preds = %40
  store i32 0, ptr %14, align 4, !tbaa !13
  br label %59

59:                                               ; preds = %102, %58
  %60 = load i32, ptr %14, align 4, !tbaa !13
  %61 = load i32, ptr %10, align 4, !tbaa !13
  %62 = icmp ult i32 %60, %61
  br i1 %62, label %63, label %105

63:                                               ; preds = %59
  %64 = load ptr, ptr %17, align 8, !tbaa !21
  %65 = load i32, ptr %14, align 4, !tbaa !13
  %66 = zext i32 %65 to i64
  %67 = getelementptr inbounds nuw float, ptr %64, i64 %66
  store float 0.000000e+00, ptr %67, align 4, !tbaa !24
  store i32 0, ptr %15, align 4, !tbaa !13
  br label %68

68:                                               ; preds = %87, %63
  %69 = load i32, ptr %15, align 4, !tbaa !13
  %70 = load i32, ptr %10, align 4, !tbaa !13
  %71 = icmp ult i32 %69, %70
  br i1 %71, label %72, label %90

72:                                               ; preds = %68
  %73 = load ptr, ptr %12, align 8, !tbaa !21
  %74 = getelementptr inbounds nuw float, ptr %73, i32 1
  store ptr %74, ptr %12, align 8, !tbaa !21
  %75 = load float, ptr %73, align 4, !tbaa !24
  %76 = load ptr, ptr %16, align 8, !tbaa !21
  %77 = load i32, ptr %15, align 4, !tbaa !13
  %78 = zext i32 %77 to i64
  %79 = getelementptr inbounds nuw float, ptr %76, i64 %78
  %80 = load float, ptr %79, align 4, !tbaa !24
  %81 = load ptr, ptr %17, align 8, !tbaa !21
  %82 = load i32, ptr %14, align 4, !tbaa !13
  %83 = zext i32 %82 to i64
  %84 = getelementptr inbounds nuw float, ptr %81, i64 %83
  %85 = load float, ptr %84, align 4, !tbaa !24
  %86 = call float @llvm.fmuladd.f32(float %75, float %80, float %85)
  store float %86, ptr %84, align 4, !tbaa !24
  br label %87

87:                                               ; preds = %72
  %88 = load i32, ptr %15, align 4, !tbaa !13
  %89 = add i32 %88, 1
  store i32 %89, ptr %15, align 4, !tbaa !13
  br label %68, !llvm.loop !44

90:                                               ; preds = %68
  %91 = load ptr, ptr %17, align 8, !tbaa !21
  %92 = load i32, ptr %14, align 4, !tbaa !13
  %93 = zext i32 %92 to i64
  %94 = getelementptr inbounds nuw float, ptr %91, i64 %93
  %95 = load float, ptr %94, align 4, !tbaa !24
  %96 = load ptr, ptr %18, align 8, !tbaa !41
  %97 = load i32, ptr %14, align 4, !tbaa !13
  %98 = zext i32 %97 to i64
  %99 = getelementptr inbounds nuw ptr, ptr %96, i64 %98
  %100 = load ptr, ptr %99, align 8, !tbaa !21
  %101 = getelementptr inbounds nuw float, ptr %100, i32 1
  store ptr %101, ptr %99, align 8, !tbaa !21
  store float %95, ptr %100, align 4, !tbaa !24
  br label %102

102:                                              ; preds = %90
  %103 = load i32, ptr %14, align 4, !tbaa !13
  %104 = add i32 %103, 1
  store i32 %104, ptr %14, align 4, !tbaa !13
  br label %59, !llvm.loop !45

105:                                              ; preds = %59
  br label %106

106:                                              ; preds = %105
  %107 = load i64, ptr %13, align 8, !tbaa !8
  %108 = add i64 %107, 1
  store i64 %108, ptr %13, align 8, !tbaa !8
  br label %34, !llvm.loop !46

109:                                              ; preds = %34
  %110 = load ptr, ptr %16, align 8, !tbaa !21
  call void @opj_free(ptr noundef %110)
  store i32 1, ptr %6, align 4
  store i32 1, ptr %19, align 4
  br label %111

111:                                              ; preds = %109, %28
  call void @llvm.lifetime.end.p0(i64 8, ptr %18) #9
  call void @llvm.lifetime.end.p0(i64 8, ptr %17) #9
  call void @llvm.lifetime.end.p0(i64 8, ptr %16) #9
  call void @llvm.lifetime.end.p0(i64 4, ptr %15) #9
  call void @llvm.lifetime.end.p0(i64 4, ptr %14) #9
  call void @llvm.lifetime.end.p0(i64 8, ptr %13) #9
  call void @llvm.lifetime.end.p0(i64 8, ptr %12) #9
  %112 = load i32, ptr %6, align 4
  ret i32 %112
}