; Function Attrs: nounwind uwtable
define hidden range(i32 0, 2) i32 @opj_mct_decode_custom(ptr noundef readonly captures(none) %0, i64 noundef %1, ptr noundef captures(none) %2, i32 noundef %3, i32 noundef %4) local_unnamed_addr #3 {
  %6 = shl i32 %3, 1
  %7 = zext i32 %6 to i64
  %8 = shl nuw nsw i64 %7, 2
  %9 = tail call ptr @opj_malloc(i64 noundef %8) #7
  %.not = icmp eq ptr %9, null
  br i1 %.not, label %31, label %10

10:                                               ; preds = %5
  %11 = zext i32 %3 to i64
  %12 = getelementptr inbounds nuw float, ptr %9, i64 %11
  %.not56 = icmp eq i64 %1, 0
  %.not57 = icmp eq i32 %3, 0
  %or.cond = or i1 %.not56, %.not57
  br i1 %or.cond, label %._crit_edge49, label %.preheader41.us.us

.preheader41.us.us:                               ; preds = %10, %._crit_edge.us.us
  %.03648.us.us = phi i64 [ %30, %._crit_edge.us.us ], [ 0, %10 ]
  br label %25

..preheader_crit_edge.us.us:                      ; preds = %25, %14
  %indvars.iv65 = phi i64 [ %indvars.iv.next66, %14 ], [ 0, %25 ]
  %.03745.us.us = phi ptr [ %20, %14 ], [ %0, %25 ]
  %13 = getelementptr inbounds nuw float, ptr %12, i64 %indvars.iv65
  store float 0.000000e+00, ptr %13, align 4, !tbaa !16
  br label %18

14:                                               ; preds = %18
  %15 = getelementptr inbounds nuw ptr, ptr %2, i64 %indvars.iv65
  %16 = load ptr, ptr %15, align 8, !tbaa !29
  %17 = getelementptr inbounds nuw i8, ptr %16, i64 4
  store ptr %17, ptr %15, align 8, !tbaa !29
  store float %24, ptr %16, align 4, !tbaa !16
  %indvars.iv.next66 = add nuw nsw i64 %indvars.iv65, 1
  %exitcond69.not = icmp eq i64 %indvars.iv.next66, %11
  br i1 %exitcond69.not, label %._crit_edge.us.us, label %..preheader_crit_edge.us.us, !llvm.loop !31

18:                                               ; preds = %18, %..preheader_crit_edge.us.us
  %indvars.iv60 = phi i64 [ %indvars.iv.next61, %18 ], [ 0, %..preheader_crit_edge.us.us ]
  %.13843.us.us = phi ptr [ %20, %18 ], [ %.03745.us.us, %..preheader_crit_edge.us.us ]
  %19 = phi float [ %24, %18 ], [ 0.000000e+00, %..preheader_crit_edge.us.us ]
  %20 = getelementptr inbounds nuw i8, ptr %.13843.us.us, i64 4
  %21 = load float, ptr %.13843.us.us, align 4, !tbaa !16
  %22 = getelementptr inbounds nuw float, ptr %9, i64 %indvars.iv60
  %23 = load float, ptr %22, align 4, !tbaa !16
  %24 = tail call float @llvm.fmuladd.f32(float %21, float %23, float %19)
  store float %24, ptr %13, align 4, !tbaa !16
  %indvars.iv.next61 = add nuw nsw i64 %indvars.iv60, 1
  %exitcond64.not = icmp eq i64 %indvars.iv.next61, %11
  br i1 %exitcond64.not, label %14, label %18, !llvm.loop !32

25:                                               ; preds = %.preheader41.us.us, %25
  %indvars.iv = phi i64 [ 0, %.preheader41.us.us ], [ %indvars.iv.next, %25 ]
  %26 = getelementptr inbounds nuw ptr, ptr %2, i64 %indvars.iv
  %27 = load ptr, ptr %26, align 8, !tbaa !29
  %28 = load float, ptr %27, align 4, !tbaa !16
  %29 = getelementptr inbounds nuw float, ptr %9, i64 %indvars.iv
  store float %28, ptr %29, align 4, !tbaa !16
  %indvars.iv.next = add nuw nsw i64 %indvars.iv, 1
  %exitcond.not = icmp eq i64 %indvars.iv.next, %11
  br i1 %exitcond.not, label %..preheader_crit_edge.us.us, label %25, !llvm.loop !33

._crit_edge.us.us:                                ; preds = %14
  %30 = add nuw i64 %.03648.us.us, 1
  %exitcond70.not = icmp eq i64 %30, %1
  br i1 %exitcond70.not, label %._crit_edge49, label %.preheader41.us.us, !llvm.loop !34

._crit_edge49:                                    ; preds = %._crit_edge.us.us, %10
  tail call void @opj_free(ptr noundef nonnull %9) #7
  br label %31

31:                                               ; preds = %5, %._crit_edge49
  %.0 = phi i32 [ 1, %._crit_edge49 ], [ 0, %5 ]
  ret i32 %.0
}